(lp0
(i__main__
Contact
p1
(dp2
S'phone'
p3
S'345'
p4
sS'name'
p5
S'rachel'
p6
sS'email'
p7
S'a;ldshf;a'
p8
sba(i__main__
Contact
p9
(dp10
g3
S'345'
p11
sg5
S'joel'
p12
sg7
S'sdflgha'
p13
sba(i__main__
Contact
p14
(dp15
g3
S'345'
p16
sg5
S'janelle'
p17
sg7
S'saldkjf;'
p18
sba.